; ModuleID = '32/326.c'
source_filename = "32/326.c"
target datalayout = "e-m:e-p270:32:32-p271:32:32-p272:64:64-i64:64-f80:128-n8:16:32:64-S128"
target triple = "x86_64-pc-linux-gnu"

@.str = private unnamed_addr constant [3 x i8] c"%d\00", align 1
@.str.1 = private unnamed_addr constant [6 x i8] c"%s %s\00", align 1
@.str.2 = private unnamed_addr constant [4 x i8] c"%s\0A\00", align 1

; Function Attrs: noinline nounwind uwtable
define dso_local void @main() #0 {
  %1 = alloca [101 x i8], align 16
  %2 = alloca [101 x i8], align 16
  %3 = alloca [100 x [101 x i8]], align 16
  %4 = alloca i32, align 4
  %5 = alloca i32, align 4
  %6 = alloca i32, align 4
  %7 = alloca i32, align 4
  %8 = alloca i32, align 4
  %9 = alloca i32, align 4
  %10 = alloca i32, align 4
  %11 = call i32 (i8*, ...) @__isoc99_scanf(i8* getelementptr inbounds ([3 x i8], [3 x i8]* @.str, i64 0, i64 0), i32* %7)
  store i32 0, i32* %4, align 4
  br label %12

12:                                               ; preds = %143, %0
  %13 = load i32, i32* %4, align 4
  %14 = load i32, i32* %7, align 4
  %15 = icmp slt i32 %13, %14
  br i1 %15, label %16, label %146

16:                                               ; preds = %12
  %17 = getelementptr inbounds [101 x i8], [101 x i8]* %1, i64 0, i64 0
  %18 = getelementptr inbounds [101 x i8], [101 x i8]* %2, i64 0, i64 0
  %19 = call i32 (i8*, ...) @__isoc99_scanf(i8* getelementptr inbounds ([6 x i8], [6 x i8]* @.str.1, i64 0, i64 0), i8* %17, i8* %18)
  %20 = getelementptr inbounds [101 x i8], [101 x i8]* %1, i64 0, i64 0
  %21 = call i64 @strlen(i8* %20) #3
  %22 = trunc i64 %21 to i32
  store i32 %22, i32* %9, align 4
  %23 = getelementptr inbounds [101 x i8], [101 x i8]* %2, i64 0, i64 0
  %24 = call i64 @strlen(i8* %23) #3
  %25 = trunc i64 %24 to i32
  store i32 %25, i32* %10, align 4
  %26 = load i32, i32* %9, align 4
  %27 = load i32, i32* %10, align 4
  %28 = sub nsw i32 %26, %27
  store i32 %28, i32* %8, align 4
  %29 = load i32, i32* %4, align 4
  %30 = sext i32 %29 to i64
  %31 = getelementptr inbounds [100 x [101 x i8]], [100 x [101 x i8]]* %3, i64 0, i64 %30
  %32 = load i32, i32* %9, align 4
  %33 = sext i32 %32 to i64
  %34 = getelementptr inbounds [101 x i8], [101 x i8]* %31, i64 0, i64 %33
  store i8 0, i8* %34, align 1
  %35 = load i32, i32* %9, align 4
  %36 = sub nsw i32 %35, 1
  store i32 %36, i32* %5, align 4
  br label %37

37:                                               ; preds = %139, %16
  %38 = load i32, i32* %5, align 4
  %39 = icmp sge i32 %38, 0
  br i1 %39, label %40, label %142

40:                                               ; preds = %37
  %41 = load i32, i32* %5, align 4
  %42 = load i32, i32* %9, align 4
  %43 = load i32, i32* %10, align 4
  %44 = sub nsw i32 %42, %43
  %45 = icmp sge i32 %41, %44
  br i1 %45, label %46, label %127

46:                                               ; preds = %40
  %47 = load i32, i32* %5, align 4
  %48 = sext i32 %47 to i64
  %49 = getelementptr inbounds [101 x i8], [101 x i8]* %1, i64 0, i64 %48
  %50 = load i8, i8* %49, align 1
  %51 = sext i8 %50 to i32
  %52 = load i32, i32* %5, align 4
  %53 = load i32, i32* %8, align 4
  %54 = sub nsw i32 %52, %53
  %55 = sext i32 %54 to i64
  %56 = getelementptr inbounds [101 x i8], [101 x i8]* %2, i64 0, i64 %55
  %57 = load i8, i8* %56, align 1
  %58 = sext i8 %57 to i32
  %59 = icmp sge i32 %51, %58
  br i1 %59, label %60, label %82

60:                                               ; preds = %46
  %61 = load i32, i32* %5, align 4
  %62 = sext i32 %61 to i64
  %63 = getelementptr inbounds [101 x i8], [101 x i8]* %1, i64 0, i64 %62
  %64 = load i8, i8* %63, align 1
  %65 = sext i8 %64 to i32
  %66 = load i32, i32* %5, align 4
  %67 = load i32, i32* %8, align 4
  %68 = sub nsw i32 %66, %67
  %69 = sext i32 %68 to i64
  %70 = getelementptr inbounds [101 x i8], [101 x i8]* %2, i64 0, i64 %69
  %71 = load i8, i8* %70, align 1
  %72 = sext i8 %71 to i32
  %73 = sub nsw i32 %65, %72
  %74 = add nsw i32 %73, 48
  %75 = trunc i32 %74 to i8
  %76 = load i32, i32* %4, align 4
  %77 = sext i32 %76 to i64
  %78 = getelementptr inbounds [100 x [101 x i8]], [100 x [101 x i8]]* %3, i64 0, i64 %77
  %79 = load i32, i32* %5, align 4
  %80 = sext i32 %79 to i64
  %81 = getelementptr inbounds [101 x i8], [101 x i8]* %78, i64 0, i64 %80
  store i8 %75, i8* %81, align 1
  br label %126

82:                                               ; preds = %46
  %83 = load i32, i32* %5, align 4
  %84 = sext i32 %83 to i64
  %85 = getelementptr inbounds [101 x i8], [101 x i8]* %1, i64 0, i64 %84
  %86 = load i8, i8* %85, align 1
  %87 = sext i8 %86 to i32
  %88 = add nsw i32 10, %87
  %89 = load i32, i32* %5, align 4
  %90 = load i32, i32* %8, align 4
  %91 = sub nsw i32 %89, %90
  %92 = sext i32 %91 to i64
  %93 = getelementptr inbounds [101 x i8], [101 x i8]* %2, i64 0, i64 %92
  %94 = load i8, i8* %93, align 1
  %95 = sext i8 %94 to i32
  %96 = sub nsw i32 %88, %95
  %97 = add nsw i32 %96, 48
  %98 = trunc i32 %97 to i8
  %99 = load i32, i32* %4, align 4
  %100 = sext i32 %99 to i64
  %101 = getelementptr inbounds [100 x [101 x i8]], [100 x [101 x i8]]* %3, i64 0, i64 %100
  %102 = load i32, i32* %5, align 4
  %103 = sext i32 %102 to i64
  %104 = getelementptr inbounds [101 x i8], [101 x i8]* %101, i64 0, i64 %103
  store i8 %98, i8* %104, align 1
  %105 = load i32, i32* %5, align 4
  %106 = sub nsw i32 %105, 1
  store i32 %106, i32* %6, align 4
  br label %107

107:                                              ; preds = %114, %82
  %108 = load i32, i32* %6, align 4
  %109 = sext i32 %108 to i64
  %110 = getelementptr inbounds [101 x i8], [101 x i8]* %1, i64 0, i64 %109
  %111 = load i8, i8* %110, align 1
  %112 = sext i8 %111 to i32
  %113 = icmp eq i32 %112, 48
  br i1 %113, label %114, label %120

114:                                              ; preds = %107
  %115 = load i32, i32* %6, align 4
  %116 = sext i32 %115 to i64
  %117 = getelementptr inbounds [101 x i8], [101 x i8]* %1, i64 0, i64 %116
  store i8 57, i8* %117, align 1
  %118 = load i32, i32* %6, align 4
  %119 = add nsw i32 %118, -1
  store i32 %119, i32* %6, align 4
  br label %107

120:                                              ; preds = %107
  %121 = load i32, i32* %6, align 4
  %122 = sext i32 %121 to i64
  %123 = getelementptr inbounds [101 x i8], [101 x i8]* %1, i64 0, i64 %122
  %124 = load i8, i8* %123, align 1
  %125 = add i8 %124, -1
  store i8 %125, i8* %123, align 1
  br label %126

126:                                              ; preds = %120, %60
  br label %138

127:                                              ; preds = %40
  %128 = load i32, i32* %5, align 4
  %129 = sext i32 %128 to i64
  %130 = getelementptr inbounds [101 x i8], [101 x i8]* %1, i64 0, i64 %129
  %131 = load i8, i8* %130, align 1
  %132 = load i32, i32* %4, align 4
  %133 = sext i32 %132 to i64
  %134 = getelementptr inbounds [100 x [101 x i8]], [100 x [101 x i8]]* %3, i64 0, i64 %133
  %135 = load i32, i32* %5, align 4
  %136 = sext i32 %135 to i64
  %137 = getelementptr inbounds [101 x i8], [101 x i8]* %134, i64 0, i64 %136
  store i8 %131, i8* %137, align 1
  br label %138

138:                                              ; preds = %127, %126
  br label %139

139:                                              ; preds = %138
  %140 = load i32, i32* %5, align 4
  %141 = add nsw i32 %140, -1
  store i32 %141, i32* %5, align 4
  br label %37

142:                                              ; preds = %37
  br label %143

143:                                              ; preds = %142
  %144 = load i32, i32* %4, align 4
  %145 = add nsw i32 %144, 1
  store i32 %145, i32* %4, align 4
  br label %12

146:                                              ; preds = %12
  store i32 0, i32* %4, align 4
  br label %147

147:                                              ; preds = %157, %146
  %148 = load i32, i32* %4, align 4
  %149 = load i32, i32* %7, align 4
  %150 = icmp slt i32 %148, %149
  br i1 %150, label %151, label %160

151:                                              ; preds = %147
  %152 = load i32, i32* %4, align 4
  %153 = sext i32 %152 to i64
  %154 = getelementptr inbounds [100 x [101 x i8]], [100 x [101 x i8]]* %3, i64 0, i64 %153
  %155 = getelementptr inbounds [101 x i8], [101 x i8]* %154, i64 0, i64 0
  %156 = call i32 (i8*, ...) @printf(i8* getelementptr inbounds ([4 x i8], [4 x i8]* @.str.2, i64 0, i64 0), i8* %155)
  br label %157

157:                                              ; preds = %151
  %158 = load i32, i32* %4, align 4
  %159 = add nsw i32 %158, 1
  store i32 %159, i32* %4, align 4
  br label %147

160:                                              ; preds = %147
  ret void
}

declare dso_local i32 @__isoc99_scanf(i8*, ...) #1

; Function Attrs: nounwind readonly
declare dso_local i64 @strlen(i8*) #2

declare dso_local i32 @printf(i8*, ...) #1


!llvm.module.flags = !{!0}
!llvm.ident = !{!1}

!0 = !{i32 1, !"wchar_size", i32 4}
!1 = !{!"clang version 10.0.0-4ubuntu1 "}
